; Function Attrs: mustprogress nounwind uwtable
define void @_ZN5faiss10BufferListD2Ev(ptr nocapture noundef nonnull readonly align 8 dereferenceable(40) %0) unnamed_addr #1 align 2 personality ptr @__gxx_personality_v0 {
  %2 = getelementptr inbounds i8, ptr %0, i64 8
  %3 = getelementptr inbounds i8, ptr %0, i64 16
  %4 = load ptr, ptr %3, align 8
  %5 = load ptr, ptr %2, align 8
  %.not = icmp eq ptr %4, %5
  br i1 %.not, label %._crit_edge, label %.lr.ph

.lr.ph:                                           ; preds = %1, %17
  %6 = phi ptr [ %18, %17 ], [ %5, %1 ]
  %indvars.iv = phi i64 [ %indvars.iv.next, %17 ], [ 0, %1 ]
  %7 = getelementptr inbounds %"struct.faiss::BufferList::Buffer", ptr %6, i64 %indvars.iv
  %8 = load ptr, ptr %7, align 8
  %9 = icmp eq ptr %8, null
  br i1 %9, label %11, label %10

10:                                               ; preds = %.lr.ph
  tail call void @_ZdaPv(ptr noundef nonnull %8) #23
  %.pre = load ptr, ptr %2, align 8
  br label %11

11:                                               ; preds = %10, %.lr.ph
  %12 = phi ptr [ %.pre, %10 ], [ %6, %.lr.ph ]
  %13 = getelementptr inbounds %"struct.faiss::BufferList::Buffer", ptr %12, i64 %indvars.iv, i32 1
  %14 = load ptr, ptr %13, align 8
  %15 = icmp eq ptr %14, null
  br i1 %15, label %17, label %16

16:                                               ; preds = %11
  tail call void @_ZdaPv(ptr noundef nonnull %14) #23
  %.pre10 = load ptr, ptr %2, align 8
  br label %17

17:                                               ; preds = %11, %16
  %18 = phi ptr [ %12, %11 ], [ %.pre10, %16 ]
  %indvars.iv.next = add nuw nsw i64 %indvars.iv, 1
  %19 = load ptr, ptr %3, align 8
  %20 = ptrtoint ptr %19 to i64
  %21 = ptrtoint ptr %18 to i64
  %22 = sub i64 %20, %21
  %23 = ashr exact i64 %22, 4
  %24 = icmp ugt i64 %23, %indvars.iv.next
  br i1 %24, label %.lr.ph, label %._crit_edge, !llvm.loop !7

._crit_edge:                                      ; preds = %17, %1
  %.lcssa = phi ptr [ %4, %1 ], [ %18, %17 ]
  %.not.i.i.i = icmp eq ptr %.lcssa, null
  br i1 %.not.i.i.i, label %_ZNSt6vectorIN5faiss10BufferList6BufferESaIS2_EED2Ev.exit, label %25

25:                                               ; preds = %._crit_edge
  tail call void @_ZdlPv(ptr noundef nonnull %.lcssa) #23
  br label %_ZNSt6vectorIN5faiss10BufferList6BufferESaIS2_EED2Ev.exit

_ZNSt6vectorIN5faiss10BufferList6BufferESaIS2_EED2Ev.exit: ; preds = %._crit_edge, %25
  ret void
}